; ModuleID = 'source-C-CXX/15/576.c'
source_filename = "source-C-CXX/15/576.c"
target datalayout = "e-m:e-p270:32:32-p271:32:32-p272:64:64-i64:64-f80:128-n8:16:32:64-S128"
target triple = "x86_64-pc-linux-gnu"

@.str = private unnamed_addr constant [3 x i8] c"%d\00", align 1
@.str.1 = private unnamed_addr constant [9 x i8] c"%d%d%d%d\00", align 1
@.str.2 = private unnamed_addr constant [7 x i8] c"%d%d%d\00", align 1
@.str.3 = private unnamed_addr constant [5 x i8] c"%d%d\00", align 1

; Function Attrs: nofree nounwind sspstrong uwtable
define dso_local void @main() local_unnamed_addr #0 {
  %1 = alloca i32, align 4
  %2 = bitcast i32* %1 to i8*
  call void @llvm.lifetime.start.p0i8(i64 4, i8* nonnull %2) #3
  %3 = call i32 (i8*, ...) @__isoc99_scanf(i8* getelementptr inbounds ([3 x i8], [3 x i8]* @.str, i64 0, i64 0), i32* nonnull %1)
  %4 = load i32, i32* %1, align 4, !tbaa !5
  %5 = sdiv i32 %4, 1000
  %6 = shl i32 %5, 24
  %7 = ashr exact i32 %6, 24
  %8 = mul nsw i32 %7, -1000
  %9 = add i32 %8, %4
  %10 = sdiv i32 %9, 100
  %11 = sdiv i32 %4, 10
  %12 = shl i32 %10, 24
  %13 = ashr exact i32 %12, 24
  %14 = mul nsw i32 %13, -10
  %15 = mul nsw i32 %7, -100
  %16 = add nsw i32 %15, %11
  %17 = add nsw i32 %16, %14
  %18 = shl i32 %17, 24
  %19 = ashr exact i32 %18, 24
  %20 = mul nsw i32 %19, -10
  %21 = mul nsw i32 %13, -100
  %22 = add i32 %9, %21
  %23 = add i32 %22, %20
  %24 = icmp eq i32 %6, 0
  br i1 %24, label %29, label %25

25:                                               ; preds = %0
  %26 = shl i32 %23, 24
  %27 = ashr exact i32 %26, 24
  %28 = call i32 (i8*, ...) @printf(i8* nonnull dereferenceable(1) getelementptr inbounds ([9 x i8], [9 x i8]* @.str.1, i64 0, i64 0), i32 %27, i32 %19, i32 %13, i32 %7)
  br label %35

29:                                               ; preds = %0
  %30 = icmp eq i32 %12, 0
  br i1 %30, label %35, label %31

31:                                               ; preds = %29
  %32 = shl i32 %23, 24
  %33 = ashr exact i32 %32, 24
  %34 = call i32 (i8*, ...) @printf(i8* nonnull dereferenceable(1) getelementptr inbounds ([7 x i8], [7 x i8]* @.str.2, i64 0, i64 0), i32 %33, i32 %19, i32 %13)
  br label %35

35:                                               ; preds = %25, %31, %29
  %36 = load i32, i32* %1, align 4, !tbaa !5
  %37 = add i32 %36, -10
  %38 = icmp ult i32 %37, 90
  br i1 %38, label %39, label %44

39:                                               ; preds = %35
  %40 = shl i32 %23, 24
  %41 = ashr exact i32 %40, 24
  %42 = call i32 (i8*, ...) @printf(i8* nonnull dereferenceable(1) getelementptr inbounds ([5 x i8], [5 x i8]* @.str.3, i64 0, i64 0), i32 %41, i32 %19)
  %43 = load i32, i32* %1, align 4, !tbaa !5
  br label %44

44:                                               ; preds = %39, %35
  %45 = phi i32 [ %43, %39 ], [ %36, %35 ]
  %46 = icmp slt i32 %45, 10
  br i1 %46, label %47, label %51

47:                                               ; preds = %44
  %48 = shl i32 %23, 24
  %49 = ashr exact i32 %48, 24
  %50 = call i32 (i8*, ...) @printf(i8* nonnull dereferenceable(1) getelementptr inbounds ([3 x i8], [3 x i8]* @.str, i64 0, i64 0), i32 %49)
  br label %51

51:                                               ; preds = %47, %44
  call void @llvm.lifetime.end.p0i8(i64 4, i8* nonnull %2) #3
  ret void
}

; Function Attrs: argmemonly mustprogress nofree nosync nounwind willreturn
declare void @llvm.lifetime.start.p0i8(i64 immarg, i8* nocapture) #1

; Function Attrs: nofree nounwind
declare noundef i32 @__isoc99_scanf(i8* nocapture noundef readonly, ...) local_unnamed_addr #2

; Function Attrs: nofree nounwind
declare noundef i32 @printf(i8* nocapture noundef readonly, ...) local_unnamed_addr #2

; Function Attrs: argmemonly mustprogress nofree nosync nounwind willreturn
declare void @llvm.lifetime.end.p0i8(i64 immarg, i8* nocapture) #1


!llvm.module.flags = !{!0, !1, !2, !3}
!llvm.ident = !{!4}

!0 = !{i32 1, !"wchar_size", i32 4}
!1 = !{i32 7, !"PIC Level", i32 2}
!2 = !{i32 7, !"PIE Level", i32 2}
!3 = !{i32 7, !"uwtable", i32 1}
!4 = !{!"clang version 13.0.0"}
!5 = !{!6, !6, i64 0}
!6 = !{!"int", !7, i64 0}
!7 = !{!"omnipotent char", !8, i64 0}
!8 = !{!"Simple C/C++ TBAA"}
